Certificate:
    Data:
        Version: 3 (0x2)
        Serial Number: 3 (0x3)
    Signature Algorithm: sha256WithRSAEncryption
        Issuer: C=JP, ST=TOKYO, L=TOKYO, O=Oz, OU=onlyOne, CN=Oz CA/name=EasyRSA/emailAddress=me@myhost.mydomain
        Validity
            Not Before: Jul 21 12:17:27 2016 GMT
            Not After : Jul 19 12:17:27 2026 GMT
        Subject: C=JP, ST=TOKYO, L=TOKYO, O=Oz, OU=onlyOne, CN=VPN_test_client/name=EasyRSA/emailAddress=me@myhost.mydomain
        Subject Public Key Info:
            Public Key Algorithm: rsaEncryption
                Public-Key: (2048 bit)
                Modulus:
                    00:de:41:3a:56:e7:f2:68:8f:0c:a5:0b:5d:9b:87:
                    3a:43:c3:d8:f6:a3:4b:0e:ad:27:f0:32:19:08:a8:
                    94:b3:01:f0:a3:b1:11:d2:c5:8c:77:e0:70:05:d0:
                    7b:62:31:00:aa:bf:4b:c3:69:d1:fb:3c:54:59:71:
                    96:83:94:41:83:27:65:cb:43:d0:70:d4:a5:0c:8b:
                    18:73:a5:76:a0:84:f3:f0:2d:4e:20:ee:75:8f:76:
                    85:3b:41:51:02:24:47:6b:62:25:cf:0c:f9:1e:69:
                    14:7a:ed:a9:4d:dc:49:8e:71:6c:f1:30:e9:55:42:
                    5b:b5:98:0d:4f:eb:ea:a7:32:15:b1:eb:c7:a3:f4:
                    5b:96:83:53:49:97:7f:a8:d8:bf:7b:ca:53:64:a3:
                    e4:d0:ff:7d:8c:98:68:30:38:38:40:50:8c:72:be:
                    71:e3:7b:bb:e1:6a:82:41:49:16:ed:15:41:96:e9:
                    40:ae:7b:5d:f6:b8:cd:ef:fe:0f:69:03:2c:31:5e:
                    3e:ae:e9:06:17:af:ff:01:b3:af:4f:43:dd:61:46:
                    27:77:06:7e:67:4e:70:1f:1f:fb:22:54:8a:d5:f7:
                    6e:51:92:54:a6:34:4e:18:c2:c4:11:54:a6:d3:d3:
                    8b:54:5d:7e:cb:48:dc:0f:4b:8c:fa:66:e5:d5:a1:
                    bc:17
                Exponent: 65537 (0x10001)
        X509v3 extensions:
            X509v3 Basic Constraints: 
                CA:FALSE
            Netscape Comment: 
                Easy-RSA Generated Certificate
            X509v3 Subject Key Identifier: 
                75:8B:73:8F:0E:81:CE:20:2F:47:20:9C:9E:F8:70:9F:A5:1B:F9:46
            X509v3 Authority Key Identifier: 
                keyid:35:BB:D6:1F:CB:6F:B7:00:7A:3B:FC:BD:43:21:A5:D2:51:E8:28:A0
                DirName:/C=JP/ST=TOKYO/L=TOKYO/O=Oz/OU=onlyOne/CN=Oz CA/name=EasyRSA/emailAddress=me@myhost.mydomain
                serial:85:98:97:1D:94:2E:AF:E8

            X509v3 Extended Key Usage: 
                TLS Web Client Authentication
            X509v3 Key Usage: 
                Digital Signature
            X509v3 Subject Alternative Name: 
                DNS:VPN_test_client
    Signature Algorithm: sha256WithRSAEncryption
         08:a3:93:00:78:ef:b4:5f:b9:a2:b2:e9:5c:98:1e:e7:38:ee:
         53:3c:62:61:34:df:30:52:0f:07:2f:6e:67:80:c8:1d:81:ef:
         25:52:85:a0:47:7d:a1:3e:a0:5f:d3:02:b8:3e:40:eb:3c:b3:
         b1:b0:07:a9:1a:bb:a1:4d:21:63:52:d9:68:f8:b0:70:5d:6c:
         03:e3:ce:3b:1f:56:6a:8f:ff:2d:f0:2f:bc:86:5c:fd:c1:85:
         7b:9f:81:e8:09:de:71:e1:a7:b5:0a:cb:1b:8c:9e:b0:c0:52:
         a8:6f:50:54:b3:a9:da:37:1a:2d:07:88:09:b6:95:b4:bb:8c:
         55:18:50:e9:07:0b:54:c1:e4:16:9b:27:31:d7:5e:b7:e4:94:
         0c:75:32:77:4b:1b:26:ed:f6:b2:71:16:f3:44:f4:8f:df:3b:
         ae:a7:25:69:c3:41:3d:c5:46:7b:f3:c2:bf:00:90:7a:2b:53:
         17:50:5a:25:03:78:15:be:54:f8:0d:39:ce:d8:f6:3b:fe:98:
         28:06:7e:c5:03:c4:7c:ed:77:8a:f2:8a:25:c4:09:a0:60:99:
         e7:f1:91:04:d3:c6:4e:94:37:f4:5e:90:20:41:a8:67:07:1d:
         27:ed:33:b2:87:6f:24:ad:5e:24:dd:3b:78:16:02:d9:cc:95:
         de:bc:a2:a3
-----BEGIN CERTIFICATE-----
MIIFDzCCA/egAwIBAgIBAzANBgkqhkiG9w0BAQsFADCBkTELMAkGA1UEBhMCSlAx
DjAMBgNVBAgTBVRPS1lPMQ4wDAYDVQQHEwVUT0tZTzELMAkGA1UEChMCT3oxEDAO
BgNVBAsTB29ubHlPbmUxDjAMBgNVBAMTBU96IENBMRAwDgYDVQQpEwdFYXN5UlNB
MSEwHwYJKoZIhvcNAQkBFhJtZUBteWhvc3QubXlkb21haW4wHhcNMTYwNzIxMTIx
NzI3WhcNMjYwNzE5MTIxNzI3WjCBmzELMAkGA1UEBhMCSlAxDjAMBgNVBAgTBVRP
S1lPMQ4wDAYDVQQHEwVUT0tZTzELMAkGA1UEChMCT3oxEDAOBgNVBAsTB29ubHlP
bmUxGDAWBgNVBAMUD1ZQTl90ZXN0X2NsaWVudDEQMA4GA1UEKRMHRWFzeVJTQTEh
MB8GCSqGSIb3DQEJARYSbWVAbXlob3N0Lm15ZG9tYWluMIIBIjANBgkqhkiG9w0B
AQEFAAOCAQ8AMIIBCgKCAQEA3kE6VufyaI8MpQtdm4c6Q8PY9qNLDq0n8DIZCKiU
swHwo7ER0sWMd+BwBdB7YjEAqr9Lw2nR+zxUWXGWg5RBgydly0PQcNSlDIsYc6V2
oITz8C1OIO51j3aFO0FRAiRHa2Ilzwz5HmkUeu2pTdxJjnFs8TDpVUJbtZgNT+vq
pzIVsevHo/RbloNTSZd/qNi/e8pTZKPk0P99jJhoMDg4QFCMcr5x43u74WqCQUkW
7RVBlulArntd9rjN7/4PaQMsMV4+rukGF6//AbOvT0PdYUYndwZ+Z05wHx/7IlSK
1fduUZJUpjROGMLEEVSm09OLVF1+y0jcD0uM+mbl1aG8FwIDAQABo4IBZDCCAWAw
CQYDVR0TBAIwADAtBglghkgBhvhCAQ0EIBYeRWFzeS1SU0EgR2VuZXJhdGVkIENl
cnRpZmljYXRlMB0GA1UdDgQWBBR1i3OPDoHOIC9HIJye+HCfpRv5RjCBxgYDVR0j
BIG+MIG7gBQ1u9Yfy2+3AHo7/L1DIaXSUegooKGBl6SBlDCBkTELMAkGA1UEBhMC
SlAxDjAMBgNVBAgTBVRPS1lPMQ4wDAYDVQQHEwVUT0tZTzELMAkGA1UEChMCT3ox
EDAOBgNVBAsTB29ubHlPbmUxDjAMBgNVBAMTBU96IENBMRAwDgYDVQQpEwdFYXN5
UlNBMSEwHwYJKoZIhvcNAQkBFhJtZUBteWhvc3QubXlkb21haW6CCQCFmJcdlC6v
6DATBgNVHSUEDDAKBggrBgEFBQcDAjALBgNVHQ8EBAMCB4AwGgYDVR0RBBMwEYIP
VlBOX3Rlc3RfY2xpZW50MA0GCSqGSIb3DQEBCwUAA4IBAQAIo5MAeO+0X7misulc
mB7nOO5TPGJhNN8wUg8HL25ngMgdge8lUoWgR32hPqBf0wK4PkDrPLOxsAepGruh
TSFjUtlo+LBwXWwD4847H1Zqj/8t8C+8hlz9wYV7n4HoCd5x4ae1CssbjJ6wwFKo
b1BUs6naNxotB4gJtpW0u4xVGFDpBwtUweQWmycx11635JQMdTJ3Sxsm7faycRbz
RPSP3zuupyVpw0E9xUZ788K/AJB6K1MXUFolA3gVvlT4DTnO2PY7/pgoBn7FA8R8
7XeK8oolxAmgYJnn8ZEE08ZOlDf0XpAgQahnBx0n7TOyh28krV4k3Tt4FgLZzJXe
vKKj
-----END CERTIFICATE-----
