Certificate:
    Data:
        Version: 3 (0x2)
        Serial Number: 3 (0x3)
    Signature Algorithm: sha256WithRSAEncryption
        Issuer: C=JP, ST=TOKYO, L=TOKYO, O=Oz, OU=onlyOne, CN=Oz CA/name=EasyRSA/emailAddress=me@myhost.mydomain
        Validity
            Not Before: Jul 24 08:01:08 2016 GMT
            Not After : Jul 22 08:01:08 2026 GMT
        Subject: C=JP, ST=TOKYO, L=TOKYO, O=Oz, OU=onlyOne, CN=VPN_test_client/name=EasyRSA/emailAddress=me@myhost.mydomain
        Subject Public Key Info:
            Public Key Algorithm: rsaEncryption
                Public-Key: (2048 bit)
                Modulus:
                    00:a6:8f:ca:b3:99:42:49:be:4f:74:21:ea:fa:9d:
                    56:27:13:59:0f:44:1b:54:aa:f5:40:cd:98:7a:97:
                    fb:9a:20:aa:84:15:d5:05:39:22:cb:aa:03:fc:0a:
                    62:e4:27:4a:0f:4d:a2:95:f1:ce:69:2a:89:8a:77:
                    55:97:2f:e5:3a:3b:96:74:77:33:17:d6:1f:d1:d2:
                    e9:5d:65:8f:24:db:73:a3:2d:7a:16:a5:13:93:a2:
                    46:fd:83:87:2e:a1:eb:78:fb:dd:f1:f9:61:0d:19:
                    cb:8f:3a:a0:86:b0:c6:d3:01:78:75:1a:7f:ac:1b:
                    f7:e7:16:b4:7a:36:76:f3:58:f5:51:bb:d8:a0:63:
                    02:35:ac:b2:75:92:df:a1:1c:ac:41:e0:09:6f:4b:
                    85:91:2a:f1:95:e3:c5:c7:4c:9a:0a:bf:e6:79:29:
                    4c:af:49:43:26:42:7b:a4:ed:81:dd:b1:35:53:5c:
                    55:c0:af:4c:38:66:61:28:51:66:47:fc:75:28:d7:
                    c5:85:64:63:79:5c:b4:64:ff:1d:76:1c:96:bb:90:
                    c3:3e:59:02:7a:c9:f7:4c:81:05:f7:cb:52:dc:00:
                    68:2d:eb:ee:5c:d3:8c:0f:f8:09:3e:e7:14:dc:f3:
                    6d:b7:cf:0d:47:54:2d:1d:9e:ea:bf:2a:2d:a1:2f:
                    db:85
                Exponent: 65537 (0x10001)
        X509v3 extensions:
            X509v3 Basic Constraints: 
                CA:FALSE
            Netscape Comment: 
                Easy-RSA Generated Certificate
            X509v3 Subject Key Identifier: 
                49:CF:0E:3B:A5:B3:2A:B4:81:A5:30:28:7D:8A:1B:EA:3F:D4:EF:76
            X509v3 Authority Key Identifier: 
                keyid:38:37:7E:51:0F:D1:9A:55:9C:14:57:FC:6D:C0:E1:7B:7B:D0:25:9C
                DirName:/C=JP/ST=TOKYO/L=TOKYO/O=Oz/OU=onlyOne/CN=Oz CA/name=EasyRSA/emailAddress=me@myhost.mydomain
                serial:BC:CA:1A:CD:A0:E2:2F:A4

            X509v3 Extended Key Usage: 
                TLS Web Client Authentication
            X509v3 Key Usage: 
                Digital Signature
            X509v3 Subject Alternative Name: 
                DNS:VPN_test_client
    Signature Algorithm: sha256WithRSAEncryption
         5a:db:a4:96:1a:ae:43:aa:69:c4:b3:05:46:c0:db:32:da:8b:
         d8:18:f3:e1:91:73:86:f0:4b:8d:41:ac:8d:23:9e:fa:eb:29:
         23:9e:99:a7:2e:72:c3:f3:bd:ea:02:ad:f1:14:80:23:fb:2a:
         c4:46:15:a0:66:d9:01:7e:f2:d5:a8:50:0f:2c:a2:bb:71:fe:
         4e:66:4f:45:f2:b2:c5:4a:91:33:66:16:48:33:96:11:14:3b:
         b4:69:76:87:b9:24:da:31:de:42:23:da:54:3d:d3:b9:f0:9a:
         35:9f:90:98:a8:08:66:a3:af:77:c1:a2:d3:4c:39:0b:00:a5:
         72:c9:2d:bb:da:9c:a3:8b:d5:e2:c9:f6:66:9e:40:08:36:ac:
         31:e1:d3:31:5b:dd:90:f1:e4:34:ba:35:09:40:07:c7:e8:0a:
         08:d4:11:79:1e:0f:72:8d:46:74:4a:71:4b:c0:57:01:a7:b8:
         35:c8:a0:c8:bc:28:5b:53:41:75:0a:e0:b5:cf:a3:cc:d7:a0:
         9c:6a:0d:83:0f:ec:34:23:d7:36:2d:d4:a3:66:20:95:a1:ad:
         75:01:6a:c7:76:58:f3:da:d7:d1:9f:b9:04:41:75:63:0f:89:
         16:d9:2a:45:a2:19:76:df:0c:30:8b:8b:13:7c:54:13:04:c5:
         70:49:88:ec
-----BEGIN CERTIFICATE-----
MIIFDzCCA/egAwIBAgIBAzANBgkqhkiG9w0BAQsFADCBkTELMAkGA1UEBhMCSlAx
DjAMBgNVBAgTBVRPS1lPMQ4wDAYDVQQHEwVUT0tZTzELMAkGA1UEChMCT3oxEDAO
BgNVBAsTB29ubHlPbmUxDjAMBgNVBAMTBU96IENBMRAwDgYDVQQpEwdFYXN5UlNB
MSEwHwYJKoZIhvcNAQkBFhJtZUBteWhvc3QubXlkb21haW4wHhcNMTYwNzI0MDgw
MTA4WhcNMjYwNzIyMDgwMTA4WjCBmzELMAkGA1UEBhMCSlAxDjAMBgNVBAgTBVRP
S1lPMQ4wDAYDVQQHEwVUT0tZTzELMAkGA1UEChMCT3oxEDAOBgNVBAsTB29ubHlP
bmUxGDAWBgNVBAMUD1ZQTl90ZXN0X2NsaWVudDEQMA4GA1UEKRMHRWFzeVJTQTEh
MB8GCSqGSIb3DQEJARYSbWVAbXlob3N0Lm15ZG9tYWluMIIBIjANBgkqhkiG9w0B
AQEFAAOCAQ8AMIIBCgKCAQEApo/Ks5lCSb5PdCHq+p1WJxNZD0QbVKr1QM2Yepf7
miCqhBXVBTkiy6oD/Api5CdKD02ilfHOaSqJindVly/lOjuWdHczF9Yf0dLpXWWP
JNtzoy16FqUTk6JG/YOHLqHrePvd8flhDRnLjzqghrDG0wF4dRp/rBv35xa0ejZ2
81j1UbvYoGMCNayydZLfoRysQeAJb0uFkSrxlePFx0yaCr/meSlMr0lDJkJ7pO2B
3bE1U1xVwK9MOGZhKFFmR/x1KNfFhWRjeVy0ZP8ddhyWu5DDPlkCesn3TIEF98tS
3ABoLevuXNOMD/gJPucU3PNtt88NR1QtHZ7qvyotoS/bhQIDAQABo4IBZDCCAWAw
CQYDVR0TBAIwADAtBglghkgBhvhCAQ0EIBYeRWFzeS1SU0EgR2VuZXJhdGVkIENl
cnRpZmljYXRlMB0GA1UdDgQWBBRJzw47pbMqtIGlMCh9ihvqP9TvdjCBxgYDVR0j
BIG+MIG7gBQ4N35RD9GaVZwUV/xtwOF7e9AlnKGBl6SBlDCBkTELMAkGA1UEBhMC
SlAxDjAMBgNVBAgTBVRPS1lPMQ4wDAYDVQQHEwVUT0tZTzELMAkGA1UEChMCT3ox
EDAOBgNVBAsTB29ubHlPbmUxDjAMBgNVBAMTBU96IENBMRAwDgYDVQQpEwdFYXN5
UlNBMSEwHwYJKoZIhvcNAQkBFhJtZUBteWhvc3QubXlkb21haW6CCQC8yhrNoOIv
pDATBgNVHSUEDDAKBggrBgEFBQcDAjALBgNVHQ8EBAMCB4AwGgYDVR0RBBMwEYIP
VlBOX3Rlc3RfY2xpZW50MA0GCSqGSIb3DQEBCwUAA4IBAQBa26SWGq5DqmnEswVG
wNsy2ovYGPPhkXOG8EuNQayNI5766ykjnpmnLnLD873qAq3xFIAj+yrERhWgZtkB
fvLVqFAPLKK7cf5OZk9F8rLFSpEzZhZIM5YRFDu0aXaHuSTaMd5CI9pUPdO58Jo1
n5CYqAhmo693waLTTDkLAKVyyS272pyji9XiyfZmnkAINqwx4dMxW92Q8eQ0ujUJ
QAfH6AoI1BF5Hg9yjUZ0SnFLwFcBp7g1yKDIvChbU0F1CuC1z6PM16Ccag2DD+w0
I9c2LdSjZiCVoa11AWrHdljz2tfRn7kEQXVjD4kW2SpFohl23wwwi4sTfFQTBMVw
SYjs
-----END CERTIFICATE-----
